target datalayout = "e-m:e-p270:32:32-p271:32:32-p272:64:64-i64:64-i128:128-f80:128-n8:16:32:64-S128"
target triple = "x86_64-pc-linux-gnu"

%class.buffer = type { ptr, i32, i32, [64 x i8] }

@.str.5 = private unnamed_addr constant [100 x i8] c"generated/home/dtcxzyw/WorkSpace/Projects/compilers/llvm-opt-benchmark/bench/z3/z3/src/util/mpn.cpp\00", align 1
@.str.6 = private unnamed_addr constant [29 x i8] c"UNEXPECTED CODE WAS REACHED.\00", align 1

; Function Attrs: mustprogress nounwind uwtable
define linkonce_odr hidden noundef nonnull align 4 dereferenceable(4) ptr @_ZN6bufferIjLb0ELj16EEixEj(ptr noundef nonnull align 8 dereferenceable(80) %0, i32 noundef %1) #6 comdat align 2 {
  %3 = alloca ptr, align 8
  %4 = alloca i32, align 4
  store ptr %0, ptr %3, align 8, !tbaa !39
  store i32 %1, ptr %4, align 4, !tbaa !10
  %5 = load ptr, ptr %3, align 8
  %6 = getelementptr inbounds nuw %class.buffer, ptr %5, i32 0, i32 0
  %7 = load ptr, ptr %6, align 8, !tbaa !41
  %8 = load i32, ptr %4, align 4, !tbaa !10
  %9 = zext i32 %8 to i64
  %10 = getelementptr inbounds nuw i32, ptr %7, i64 %9
  ret ptr %10
}

; Function Attrs: mustprogress nounwind uwtable
define linkonce_odr hidden noundef i32 @_ZNK6bufferIjLb0ELj16EE4sizeEv(ptr noundef nonnull align 8 dereferenceable(80) %0) #6 comdat align 2 {
  %2 = alloca ptr, align 8
  store ptr %0, ptr %2, align 8, !tbaa !39
  %3 = load ptr, ptr %2, align 8
  %4 = getelementptr inbounds nuw %class.buffer, ptr %3, i32 0, i32 1
  %5 = load i32, ptr %4, align 8, !tbaa !49
  ret i32 %5
}

; Function Attrs: mustprogress uwtable
define hidden noundef zeroext i1 @_ZNK11mpn_manager5div_1ER7sbufferIjLj16EEjPj(ptr noundef nonnull align 1 dereferenceable(1) %0, ptr noundef nonnull align 8 dereferenceable(80) %1, i32 noundef %2, ptr noundef %3) #4 align 2 {
  %5 = alloca ptr, align 8
  %6 = alloca ptr, align 8
  %7 = alloca i32, align 4
  %8 = alloca ptr, align 8
  %9 = alloca i64, align 8
  %10 = alloca i64, align 8
  %11 = alloca i64, align 8
  %12 = alloca i32, align 4
  %13 = alloca i32, align 4
  store ptr %0, ptr %5, align 8, !tbaa !3
  store ptr %1, ptr %6, align 8, !tbaa !31
  store i32 %2, ptr %7, align 4, !tbaa !10
  store ptr %3, ptr %8, align 8, !tbaa !8
  call void @llvm.lifetime.start.p0(i64 8, ptr %9) #3
  call void @llvm.lifetime.start.p0(i64 8, ptr %10) #3
  call void @llvm.lifetime.start.p0(i64 8, ptr %11) #3
  call void @llvm.lifetime.start.p0(i64 4, ptr %12) #3
  call void @llvm.lifetime.start.p0(i64 4, ptr %13) #3
  %14 = load ptr, ptr %6, align 8, !tbaa !31
  %15 = call noundef i32 @_ZNK6bufferIjLb0ELj16EE4sizeEv(ptr noundef nonnull align 8 dereferenceable(80) %14)
  %16 = sub i32 %15, 1
  store i32 %16, ptr %13, align 4, !tbaa !10
  br label %17

17:                                               ; preds = %93, %4
  %18 = load i32, ptr %13, align 4, !tbaa !10
  %19 = icmp ugt i32 %18, 0
  br i1 %19, label %21, label %20

20:                                               ; preds = %17
  call void @llvm.lifetime.end.p0(i64 4, ptr %13) #3
  br label %96

21:                                               ; preds = %17
  %22 = load ptr, ptr %6, align 8, !tbaa !31
  %23 = load i32, ptr %13, align 4, !tbaa !10
  %24 = call noundef nonnull align 4 dereferenceable(4) ptr @_ZN6bufferIjLb0ELj16EEixEj(ptr noundef nonnull align 8 dereferenceable(80) %22, i32 noundef %23)
  %25 = load i32, ptr %24, align 4, !tbaa !10
  %26 = zext i32 %25 to i64
  %27 = shl i64 %26, 32
  %28 = load ptr, ptr %6, align 8, !tbaa !31
  %29 = load i32, ptr %13, align 4, !tbaa !10
  %30 = sub i32 %29, 1
  %31 = call noundef nonnull align 4 dereferenceable(4) ptr @_ZN6bufferIjLb0ELj16EEixEj(ptr noundef nonnull align 8 dereferenceable(80) %28, i32 noundef %30)
  %32 = load i32, ptr %31, align 4, !tbaa !10
  %33 = zext i32 %32 to i64
  %34 = or i64 %27, %33
  store i64 %34, ptr %10, align 8, !tbaa !24
  %35 = load i64, ptr %10, align 8, !tbaa !24
  %36 = load i32, ptr %7, align 4, !tbaa !10
  %37 = zext i32 %36 to i64
  %38 = udiv i64 %35, %37
  store i64 %38, ptr %9, align 8, !tbaa !24
  %39 = load i64, ptr %9, align 8, !tbaa !24
  %40 = icmp uge i64 %39, 4294967296
  br i1 %40, label %41, label %42

41:                                               ; preds = %21
  call void @_Z26notify_assertion_violationPKciS0_(ptr noundef @.str.5, i32 noundef 260, ptr noundef @.str.6)
  call void @_Z18invoke_exit_actionj(i32 noundef 114)
  br label %42

42:                                               ; preds = %41, %21
  %43 = load i64, ptr %10, align 8, !tbaa !24
  %44 = load i64, ptr %9, align 8, !tbaa !24
  %45 = load i32, ptr %7, align 4, !tbaa !10
  %46 = zext i32 %45 to i64
  %47 = mul i64 %44, %46
  %48 = sub i64 %43, %47
  store i64 %48, ptr %11, align 8, !tbaa !24
  %49 = load i64, ptr %11, align 8, !tbaa !24
  %50 = load i64, ptr %10, align 8, !tbaa !24
  %51 = icmp ugt i64 %49, %50
  %52 = zext i1 %51 to i32
  store i32 %52, ptr %12, align 4, !tbaa !10
  %53 = load i64, ptr %11, align 8, !tbaa !24
  %54 = trunc i64 %53 to i32
  %55 = load ptr, ptr %6, align 8, !tbaa !31
  %56 = load i32, ptr %13, align 4, !tbaa !10
  %57 = sub i32 %56, 1
  %58 = call noundef nonnull align 4 dereferenceable(4) ptr @_ZN6bufferIjLb0ELj16EEixEj(ptr noundef nonnull align 8 dereferenceable(80) %55, i32 noundef %57)
  store i32 %54, ptr %58, align 4, !tbaa !10
  %59 = load i64, ptr %11, align 8, !tbaa !24
  %60 = lshr i64 %59, 32
  %61 = trunc i64 %60 to i32
  %62 = load ptr, ptr %6, align 8, !tbaa !31
  %63 = load i32, ptr %13, align 4, !tbaa !10
  %64 = call noundef nonnull align 4 dereferenceable(4) ptr @_ZN6bufferIjLb0ELj16EEixEj(ptr noundef nonnull align 8 dereferenceable(80) %62, i32 noundef %63)
  store i32 %61, ptr %64, align 4, !tbaa !10
  %65 = load i64, ptr %9, align 8, !tbaa !24
  %66 = trunc i64 %65 to i32
  %67 = load ptr, ptr %8, align 8, !tbaa !8
  %68 = load i32, ptr %13, align 4, !tbaa !10
  %69 = sub i32 %68, 1
  %70 = zext i32 %69 to i64
  %71 = getelementptr inbounds nuw i32, ptr %67, i64 %70
  store i32 %66, ptr %71, align 4, !tbaa !10
  %72 = load i32, ptr %12, align 4, !tbaa !10
  %73 = icmp ne i32 %72, 0
  br i1 %73, label %74, label %92

74:                                               ; preds = %42
  %75 = load ptr, ptr %8, align 8, !tbaa !8
  %76 = load i32, ptr %13, align 4, !tbaa !10
  %77 = sub i32 %76, 1
  %78 = zext i32 %77 to i64
  %79 = getelementptr inbounds nuw i32, ptr %75, i64 %78
  %80 = load i32, ptr %79, align 4, !tbaa !10
  %81 = add i32 %80, -1
  store i32 %81, ptr %79, align 4, !tbaa !10
  %82 = load ptr, ptr %6, align 8, !tbaa !31
  %83 = load i32, ptr %13, align 4, !tbaa !10
  %84 = sub i32 %83, 1
  %85 = call noundef nonnull align 4 dereferenceable(4) ptr @_ZN6bufferIjLb0ELj16EEixEj(ptr noundef nonnull align 8 dereferenceable(80) %82, i32 noundef %84)
  %86 = load i32, ptr %85, align 4, !tbaa !10
  %87 = load i32, ptr %7, align 4, !tbaa !10
  %88 = add i32 %86, %87
  %89 = load ptr, ptr %6, align 8, !tbaa !31
  %90 = load i32, ptr %13, align 4, !tbaa !10
  %91 = call noundef nonnull align 4 dereferenceable(4) ptr @_ZN6bufferIjLb0ELj16EEixEj(ptr noundef nonnull align 8 dereferenceable(80) %89, i32 noundef %90)
  store i32 %88, ptr %91, align 4, !tbaa !10
  br label %92

92:                                               ; preds = %74, %42
  br label %93

93:                                               ; preds = %92
  %94 = load i32, ptr %13, align 4, !tbaa !10
  %95 = add i32 %94, -1
  store i32 %95, ptr %13, align 4, !tbaa !10
  br label %17, !llvm.loop !38

96:                                               ; preds = %20
  call void @llvm.lifetime.end.p0(i64 4, ptr %12) #3
  call void @llvm.lifetime.end.p0(i64 8, ptr %11) #3
  call void @llvm.lifetime.end.p0(i64 8, ptr %10) #3
  call void @llvm.lifetime.end.p0(i64 8, ptr %9) #3
  ret i1 true
}