; Function Attrs: mustprogress uwtable
define hidden noundef zeroext i1 @_ZNK11mpn_manager5div_1ER7sbufferIjLj16EEjPj(ptr noundef nonnull readnone align 1 captures(none) dereferenceable(1) %0, ptr noundef nonnull readonly align 8 captures(none) dereferenceable(80) %1, i32 noundef %2, ptr noundef writeonly captures(none) %3) local_unnamed_addr #7 align 2 {
  %5 = getelementptr inbounds nuw i8, ptr %1, i64 8
  %6 = load i32, ptr %5, align 8, !tbaa !20
  %.031 = add i32 %6, -1
  %.not32 = icmp eq i32 %.031, 0
  br i1 %.not32, label %._crit_edge, label %.lr.ph

.lr.ph:                                           ; preds = %4
  %7 = zext i32 %2 to i64
  %8 = zext i32 %.031 to i64
  %.pre = load ptr, ptr %1, align 8, !tbaa !16
  br label %9

._crit_edge:                                      ; preds = %39, %4
  ret i1 true

9:                                                ; preds = %.lr.ph, %39
  %10 = phi ptr [ %.pre, %.lr.ph ], [ %25, %39 ]
  %indvars.iv = phi i64 [ %8, %.lr.ph ], [ %indvars.iv.next, %39 ]
  %.0.in33 = phi i32 [ %6, %.lr.ph ], [ %41, %39 ]
  %11 = getelementptr inbounds nuw i32, ptr %10, i64 %indvars.iv
  %12 = load i32, ptr %11, align 4, !tbaa !3
  %13 = zext i32 %12 to i64
  %14 = shl nuw i64 %13, 32
  %15 = add i32 %.0.in33, -2
  %16 = zext i32 %15 to i64
  %17 = getelementptr inbounds nuw i32, ptr %10, i64 %16
  %18 = load i32, ptr %17, align 4, !tbaa !3
  %19 = zext i32 %18 to i64
  %20 = or disjoint i64 %14, %19
  %21 = udiv i64 %20, %7
  %.recomposed = urem i64 %20, %7
  %22 = icmp ugt i64 %21, 4294967295
  br i1 %22, label %23, label %24

23:                                               ; preds = %9
  tail call void @_Z26notify_assertion_violationPKciS0_(ptr noundef nonnull @.str.5, i32 noundef 260, ptr noundef nonnull @.str.6)
  tail call void @_Z18invoke_exit_actionj(i32 noundef 114)
  %.pre36 = load ptr, ptr %1, align 8, !tbaa !16
  br label %24

24:                                               ; preds = %23, %9
  %25 = phi ptr [ %.pre36, %23 ], [ %10, %9 ]
  %26 = mul i64 %21, %7
  %27 = icmp ugt i64 %26, %20
  %28 = trunc i64 %.recomposed to i32
  %29 = getelementptr inbounds nuw i32, ptr %25, i64 %16
  store i32 %28, ptr %29, align 4, !tbaa !3
  %30 = lshr i64 %.recomposed, 32
  %31 = trunc nuw i64 %30 to i32
  %32 = getelementptr inbounds nuw i32, ptr %25, i64 %indvars.iv
  store i32 %31, ptr %32, align 4, !tbaa !3
  %33 = trunc i64 %21 to i32
  %34 = getelementptr inbounds nuw i32, ptr %3, i64 %16
  store i32 %33, ptr %34, align 4, !tbaa !3
  br i1 %27, label %35, label %39

35:                                               ; preds = %24
  %36 = add i32 %33, -1
  store i32 %36, ptr %34, align 4, !tbaa !3
  %37 = load i32, ptr %29, align 4, !tbaa !3
  %38 = add i32 %37, %2
  store i32 %38, ptr %32, align 4, !tbaa !3
  br label %39

39:                                               ; preds = %24, %35
  %indvars.iv.next = add nsw i64 %indvars.iv, -1
  %40 = and i64 %indvars.iv.next, 4294967295
  %.not = icmp eq i64 %40, 0
  %41 = trunc nuw i64 %indvars.iv to i32
  br i1 %.not, label %._crit_edge, label %9, !llvm.loop !22
}